
AnalogReadHighSpeed.elf:     file format elf32-avr

Sections:
Idx Name          Size      VMA       LMA       File off  Algn
  0 .text         000000f0  00000000  00000000  00000054  2**1
                  CONTENTS, ALLOC, LOAD, READONLY, CODE
  1 .comment      00000030  00000000  00000000  00000144  2**0
                  CONTENTS, READONLY
  2 .debug_aranges 00000020  00000000  00000000  00000174  2**0
                  CONTENTS, READONLY, DEBUGGING
  3 .debug_info   000000c0  00000000  00000000  00000194  2**0
                  CONTENTS, READONLY, DEBUGGING
  4 .debug_abbrev 0000008f  00000000  00000000  00000254  2**0
                  CONTENTS, READONLY, DEBUGGING
  5 .debug_line   000000dc  00000000  00000000  000002e3  2**0
                  CONTENTS, READONLY, DEBUGGING
  6 .debug_frame  00000024  00000000  00000000  000003c0  2**2
                  CONTENTS, READONLY, DEBUGGING
  7 .debug_str    00000154  00000000  00000000  000003e4  2**0
                  CONTENTS, READONLY, DEBUGGING
  8 .debug_loc    00000033  00000000  00000000  00000538  2**0
                  CONTENTS, READONLY, DEBUGGING
  9 .debug_ranges 00000010  00000000  00000000  0000056b  2**0
                  CONTENTS, READONLY, DEBUGGING

Disassembly of section .text:

00000000 <__vectors>:
   0:	0c 94 34 00 	jmp	0x68	; 0x68 <__ctors_end>
   4:	0c 94 3e 00 	jmp	0x7c	; 0x7c <__bad_interrupt>
   8:	0c 94 3e 00 	jmp	0x7c	; 0x7c <__bad_interrupt>
   c:	0c 94 3e 00 	jmp	0x7c	; 0x7c <__bad_interrupt>
  10:	0c 94 3e 00 	jmp	0x7c	; 0x7c <__bad_interrupt>
  14:	0c 94 3e 00 	jmp	0x7c	; 0x7c <__bad_interrupt>
  18:	0c 94 3e 00 	jmp	0x7c	; 0x7c <__bad_interrupt>
  1c:	0c 94 3e 00 	jmp	0x7c	; 0x7c <__bad_interrupt>
  20:	0c 94 3e 00 	jmp	0x7c	; 0x7c <__bad_interrupt>
  24:	0c 94 3e 00 	jmp	0x7c	; 0x7c <__bad_interrupt>
  28:	0c 94 3e 00 	jmp	0x7c	; 0x7c <__bad_interrupt>
  2c:	0c 94 3e 00 	jmp	0x7c	; 0x7c <__bad_interrupt>
  30:	0c 94 3e 00 	jmp	0x7c	; 0x7c <__bad_interrupt>
  34:	0c 94 3e 00 	jmp	0x7c	; 0x7c <__bad_interrupt>
  38:	0c 94 3e 00 	jmp	0x7c	; 0x7c <__bad_interrupt>
  3c:	0c 94 3e 00 	jmp	0x7c	; 0x7c <__bad_interrupt>
  40:	0c 94 3e 00 	jmp	0x7c	; 0x7c <__bad_interrupt>
  44:	0c 94 3e 00 	jmp	0x7c	; 0x7c <__bad_interrupt>
  48:	0c 94 3e 00 	jmp	0x7c	; 0x7c <__bad_interrupt>
  4c:	0c 94 3e 00 	jmp	0x7c	; 0x7c <__bad_interrupt>
  50:	0c 94 3e 00 	jmp	0x7c	; 0x7c <__bad_interrupt>
  54:	0c 94 3e 00 	jmp	0x7c	; 0x7c <__bad_interrupt>
  58:	0c 94 3e 00 	jmp	0x7c	; 0x7c <__bad_interrupt>
  5c:	0c 94 3e 00 	jmp	0x7c	; 0x7c <__bad_interrupt>
  60:	0c 94 3e 00 	jmp	0x7c	; 0x7c <__bad_interrupt>
  64:	0c 94 3e 00 	jmp	0x7c	; 0x7c <__bad_interrupt>

00000068 <__ctors_end>:
  68:	11 24       	eor	r1, r1
  6a:	1f be       	out	0x3f, r1	; 63
  6c:	cf ef       	ldi	r28, 0xFF	; 255
  6e:	d8 e0       	ldi	r29, 0x08	; 8
  70:	de bf       	out	0x3e, r29	; 62
  72:	cd bf       	out	0x3d, r28	; 61
  74:	0e 94 40 00 	call	0x80	; 0x80 <main>
  78:	0c 94 76 00 	jmp	0xec	; 0xec <_exit>

0000007c <__bad_interrupt>:
  7c:	0c 94 00 00 	jmp	0	; 0x0 <__vectors>

00000080 <main>:
#include <util/delay.h>
#include <avr/interrupt.h>

int main(void)
{
	DDRD = 0b11111100;
  80:	8c ef       	ldi	r24, 0xFC	; 252
  82:	8a b9       	out	0x0a, r24	; 10
	DDRB = 0b111111; // Set input or output
  84:	8f e3       	ldi	r24, 0x3F	; 63
  86:	84 b9       	out	0x04, r24	; 4
	ADCSRA |= (1 << ADEN); // Enable the ADC
  88:	ea e7       	ldi	r30, 0x7A	; 122
  8a:	f0 e0       	ldi	r31, 0x00	; 0
  8c:	80 81       	ld	r24, Z
  8e:	80 68       	ori	r24, 0x80	; 128
  90:	80 83       	st	Z, r24
	ADCSRA |= (1 << ADPS0)|(1 << ADPS1)|(1 << ADPS2); // Set ADC frequency to 125kHz
  92:	80 81       	ld	r24, Z
  94:	87 60       	ori	r24, 0x07	; 7
  96:	80 83       	st	Z, r24
	ADMUX |= (1 << ADLAR); // Set the left justified MSB, located in ADCH (8 - MSB) and ADCL (2 - LSB).
  98:	ac e7       	ldi	r26, 0x7C	; 124
  9a:	b0 e0       	ldi	r27, 0x00	; 0
  9c:	8c 91       	ld	r24, X
  9e:	80 62       	ori	r24, 0x20	; 32
  a0:	8c 93       	st	X, r24
	ADCSRA |= (1 << ADATE);
  a2:	80 81       	ld	r24, Z
  a4:	80 62       	ori	r24, 0x20	; 32
  a6:	80 83       	st	Z, r24
	ADCSRB = (0 << ADTS0)|(0 << ADTS1)|(0 << ADTS2); // Set ADC to free running mode
  a8:	10 92 7b 00 	sts	0x007B, r1
	//ADMUX |= (1 << REFS0)|(0 << REFS1);// Set the Vref to Internal VCC
	ADMUX |= (0 << REFS0)|(0 << REFS1); // set the Vref to external Vcc in AREF
  ac:	8c 91       	ld	r24, X
  ae:	8c 93       	st	X, r24
	ADMUX |= (0 << MUX3)|(0 << MUX2)|(0 << MUX1)|(0 << MUX0); // Select the analog channel (here A0) that will be used (A0 to A6)
  b0:	8c 91       	ld	r24, X
  b2:	8c 93       	st	X, r24
	ADCSRA |= (1 << ADSC); // Start ADC measurements
  b4:	80 81       	ld	r24, Z
  b6:	80 64       	ori	r24, 0x40	; 64
  b8:	80 83       	st	Z, r24
	UCSR0B = (0 << RXEN0)|(0 << TXEN0);
  ba:	10 92 c1 00 	sts	0x00C1, r1
	int8_t y = 2;
	
	
    while(1)
    {
		ADCSRA |= (1 << ADSC);
  be:	aa e7       	ldi	r26, 0x7A	; 122
  c0:	b0 e0       	ldi	r27, 0x00	; 0
		
		PORTB = ADCH >> 2;
  c2:	e9 e7       	ldi	r30, 0x79	; 121
  c4:	f0 e0       	ldi	r31, 0x00	; 0
		i = (ADCH & clear)*0b00000100 + ADCL;
  c6:	c8 e7       	ldi	r28, 0x78	; 120
  c8:	d0 e0       	ldi	r29, 0x00	; 0
	int8_t y = 2;
	
	
    while(1)
    {
		ADCSRA |= (1 << ADSC);
  ca:	8c 91       	ld	r24, X
  cc:	80 64       	ori	r24, 0x40	; 64
  ce:	8c 93       	st	X, r24
		
		PORTB = ADCH >> 2;
  d0:	80 81       	ld	r24, Z
  d2:	86 95       	lsr	r24
  d4:	86 95       	lsr	r24
  d6:	85 b9       	out	0x05, r24	; 5
		i = (ADCH & clear)*0b00000100 + ADCL;
  d8:	80 81       	ld	r24, Z
  da:	98 81       	ld	r25, Y
  dc:	83 70       	andi	r24, 0x03	; 3
  de:	88 0f       	add	r24, r24
  e0:	88 0f       	add	r24, r24
  e2:	89 0f       	add	r24, r25
		PORTD = i << 4;
  e4:	82 95       	swap	r24
  e6:	80 7f       	andi	r24, 0xF0	; 240
  e8:	8b b9       	out	0x0b, r24	; 11
  ea:	ef cf       	rjmp	.-34     	; 0xca <main+0x4a>

000000ec <_exit>:
  ec:	f8 94       	cli

000000ee <__stop_program>:
  ee:	ff cf       	rjmp	.-2      	; 0xee <__stop_program>
